target datalayout = "e-m:e-p270:32:32-p271:32:32-p272:64:64-i64:64-i128:128-f80:128-n8:16:32:64-S128"
target triple = "x86_64-pc-linux-gnu"

%struct._zend_executor_globals = type { %struct._zval_struct, %struct._zval_struct, [32 x ptr], ptr, ptr, %struct._zend_array, %struct._zend_array, ptr, i32, i8, %struct._zval_struct, i32, ptr, ptr, ptr, ptr, ptr, ptr, i64, ptr, ptr, i32, ptr, i32, i64, i32, i32, i32, i8, i8, %struct.zend_atomic_bool_s, %struct.zend_atomic_bool_s, ptr, i64, ptr, ptr, %struct._zend_array, %struct._zend_array, i32, i8, %struct._zval_struct, %struct._zval_struct, %struct._zend_stack, %struct._zend_stack, %struct._zend_stack, ptr, i32, i32, i64, ptr, ptr, ptr, %struct._zend_objects_store, %struct._zend_lazy_objects_store, ptr, ptr, ptr, [3 x %struct._zend_op], ptr, i8, i8, i64, i32, i32, ptr, [16 x %struct._HashTableIterator], ptr, %union._zend_function, %struct._zend_op, %struct._zend_array, i64, %struct.zend_get_gc_buffer, ptr, ptr, ptr, i64, i8, i32, ptr, ptr, i64, %struct._zend_call_stack, i64, i64, %struct._zend_strtod_state, [6 x ptr] }
%struct.zend_atomic_bool_s = type { i8 }
%struct._zval_struct = type { %union._zend_value, %union.anon, %union.anon.2 }
%union._zend_value = type { i64 }
%union.anon = type { i32 }
%union.anon.2 = type { i32 }
%struct._zend_stack = type { i32, i32, i32, ptr }
%struct._zend_objects_store = type { ptr, i32, i32, i32 }
%struct._zend_lazy_objects_store = type { %struct._zend_array }
%struct._HashTableIterator = type { ptr, i32, i32 }
%union._zend_function = type { %struct._zend_op_array }
%struct._zend_op_array = type { i8, [3 x i8], i32, ptr, ptr, ptr, i32, i32, ptr, ptr, ptr, ptr, i32, ptr, i32, i32, i32, ptr, ptr, ptr, ptr, ptr, i32, i32, ptr, ptr, ptr, i32, i32, i32, i32, ptr, ptr, [6 x ptr] }
%struct._zend_op = type { ptr, %union._znode_op, %union._znode_op, %union._znode_op, i32, i32, i8, i8, i8, i8 }
%union._znode_op = type { i32 }
%struct._zend_array = type { %struct._zend_refcounted_h, %union.anon.4, i32, %union.anon.6, i32, i32, i32, i32, i64, ptr }
%struct._zend_refcounted_h = type { i32, %union.anon.3 }
%union.anon.3 = type { i32 }
%union.anon.4 = type { i32 }
%union.anon.6 = type { ptr }
%struct.zend_get_gc_buffer = type { ptr, ptr, ptr }
%struct._zend_call_stack = type { ptr, i64 }
%struct._zend_strtod_state = type { [8 x ptr], ptr, ptr }
%struct._php_ps_globals = type { ptr, ptr, ptr, ptr, ptr, i64, ptr, ptr, ptr, i8, i8, ptr, ptr, ptr, i32, ptr, i32, i32, %struct._php_random_status_state_pcgoneseq128xslrr64, %struct._php_random_algo_with_state, i64, i64, i64, i64, %struct.anon.8, ptr, i8, i8, i8, i8, i8, i8, i8, i8, ptr, %struct._zval_struct, i64, i64, ptr, ptr, ptr, i64, double, i8, i8, i8, i8, i8, i8, ptr }
%struct._php_random_status_state_pcgoneseq128xslrr64 = type { i128 }
%struct._php_random_algo_with_state = type { ptr, ptr }
%struct.anon.8 = type { %struct._zval_struct, %struct._zval_struct, %struct._zval_struct, %struct._zval_struct, %struct._zval_struct, %struct._zval_struct, %struct._zval_struct, %struct._zval_struct, %struct._zval_struct }
%struct.__jmp_buf_tag = type { [8 x i64], i32, %struct.__sigset_t }
%struct.__sigset_t = type { [16 x i64] }
%struct.anon.0 = type { i8, i8, %union.anon.1 }
%union.anon.1 = type { i16 }

@executor_globals = external global %struct._zend_executor_globals, align 8
@ps_globals = external global %struct._php_ps_globals, align 16
@.str.1 = private unnamed_addr constant [103 x i8] c"/home/dtcxzyw/WorkSpace/Projects/compilers/llvm-opt-benchmark/bench/php/php-src/ext/session/mod_user.c\00", align 1
@.str.4 = private unnamed_addr constant [55 x i8] c"Cannot call session save handler in a recursive manner\00", align 1

; Function Attrs: alwaysinline nounwind uwtable
define internal zeroext i8 @zval_get_type(ptr noundef %0) #2 {
  %2 = alloca ptr, align 8
  store ptr %0, ptr %2, align 8, !tbaa !12
  %3 = load ptr, ptr %2, align 8, !tbaa !12
  %4 = getelementptr inbounds nuw %struct._zval_struct, ptr %3, i32 0, i32 1
  %5 = getelementptr inbounds nuw %struct.anon.0, ptr %4, i32 0, i32 0
  %6 = load i8, ptr %5, align 8, !tbaa !16
  ret i8 %6
}

; Function Attrs: nounwind uwtable
define internal void @ps_call_handler(ptr noundef %0, i32 noundef %1, ptr noundef %2, ptr noundef %3) #0 {
  %5 = alloca ptr, align 8
  %6 = alloca i32, align 4
  %7 = alloca ptr, align 8
  %8 = alloca ptr, align 8
  %9 = alloca i32, align 4
  %10 = alloca i32, align 4
  store ptr %0, ptr %5, align 8, !tbaa !12
  store i32 %1, ptr %6, align 4, !tbaa !10
  store ptr %2, ptr %7, align 8, !tbaa !12
  store ptr %3, ptr %8, align 8, !tbaa !12
  call void @llvm.lifetime.start.p0(i64 4, ptr %9) #10
  %11 = load i8, ptr getelementptr inbounds nuw (%struct._php_ps_globals, ptr @ps_globals, i32 0, i32 47), align 4, !tbaa !69, !range !62, !noundef !63
  %12 = trunc i8 %11 to i1
  br i1 %12, label %13, label %19

13:                                               ; preds = %4
  store i8 0, ptr getelementptr inbounds nuw (%struct._php_ps_globals, ptr @ps_globals, i32 0, i32 47), align 4, !tbaa !69
  br label %14

14:                                               ; preds = %13
  %15 = load ptr, ptr %8, align 8, !tbaa !12
  %16 = getelementptr inbounds nuw %struct._zval_struct, ptr %15, i32 0, i32 1
  store i32 0, ptr %16, align 8, !tbaa !16
  br label %17

17:                                               ; preds = %14
  br label %18

18:                                               ; preds = %17
  call void (ptr, i32, ptr, ...) @php_error_docref(ptr noundef null, i32 noundef 2, ptr noundef @.str.4)
  store i32 1, ptr %10, align 4
  br label %59

19:                                               ; preds = %4
  store i8 1, ptr getelementptr inbounds nuw (%struct._php_ps_globals, ptr @ps_globals, i32 0, i32 47), align 4, !tbaa !69
  %20 = load ptr, ptr %5, align 8, !tbaa !12
  %21 = load ptr, ptr %8, align 8, !tbaa !12
  %22 = load i32, ptr %6, align 4, !tbaa !10
  %23 = load ptr, ptr %7, align 8, !tbaa !12
  %24 = call i32 @_call_user_function_impl(ptr noundef null, ptr noundef %20, ptr noundef %21, i32 noundef %22, ptr noundef %23, ptr noundef null)
  %25 = icmp eq i32 %24, -1
  br i1 %25, label %26, label %33

26:                                               ; preds = %19
  %27 = load ptr, ptr %8, align 8, !tbaa !12
  call void @zval_ptr_dtor(ptr noundef %27)
  br label %28

28:                                               ; preds = %26
  %29 = load ptr, ptr %8, align 8, !tbaa !12
  %30 = getelementptr inbounds nuw %struct._zval_struct, ptr %29, i32 0, i32 1
  store i32 0, ptr %30, align 8, !tbaa !16
  br label %31

31:                                               ; preds = %28
  br label %32

32:                                               ; preds = %31
  br label %45

33:                                               ; preds = %19
  %34 = load ptr, ptr %8, align 8, !tbaa !12
  %35 = call zeroext i8 @zval_get_type(ptr noundef %34)
  %36 = zext i8 %35 to i32
  %37 = icmp eq i32 %36, 0
  br i1 %37, label %38, label %44

38:                                               ; preds = %33
  br label %39

39:                                               ; preds = %38
  %40 = load ptr, ptr %8, align 8, !tbaa !12
  %41 = getelementptr inbounds nuw %struct._zval_struct, ptr %40, i32 0, i32 1
  store i32 1, ptr %41, align 8, !tbaa !16
  br label %42

42:                                               ; preds = %39
  br label %43

43:                                               ; preds = %42
  br label %44

44:                                               ; preds = %43, %33
  br label %45

45:                                               ; preds = %44, %32
  store i8 0, ptr getelementptr inbounds nuw (%struct._php_ps_globals, ptr @ps_globals, i32 0, i32 47), align 4, !tbaa !69
  store i32 0, ptr %9, align 4, !tbaa !10
  br label %46

46:                                               ; preds = %55, %45
  %47 = load i32, ptr %9, align 4, !tbaa !10
  %48 = load i32, ptr %6, align 4, !tbaa !10
  %49 = icmp slt i32 %47, %48
  br i1 %49, label %50, label %58

50:                                               ; preds = %46
  %51 = load ptr, ptr %7, align 8, !tbaa !12
  %52 = load i32, ptr %9, align 4, !tbaa !10
  %53 = sext i32 %52 to i64
  %54 = getelementptr inbounds %struct._zval_struct, ptr %51, i64 %53
  call void @zval_ptr_dtor(ptr noundef %54)
  br label %55

55:                                               ; preds = %50
  %56 = load i32, ptr %9, align 4, !tbaa !10
  %57 = add nsw i32 %56, 1
  store i32 %57, ptr %9, align 4, !tbaa !10
  br label %46

58:                                               ; preds = %46
  store i32 0, ptr %10, align 4
  br label %59

59:                                               ; preds = %58, %18
  call void @llvm.lifetime.end.p0(i64 4, ptr %9) #10
  %60 = load i32, ptr %10, align 4
  switch i32 %60, label %62 [
    i32 0, label %61
    i32 1, label %61
  ]

61:                                               ; preds = %59, %59
  ret void

62:                                               ; preds = %59
  unreachable
}

; Function Attrs: nounwind uwtable
define hidden i32 @ps_close_user(ptr noundef %0) #0 {
  %2 = alloca i32, align 4
  %3 = alloca ptr, align 8
  %4 = alloca i8, align 1
  %5 = alloca %struct._zval_struct, align 8
  %6 = alloca i32, align 4
  %7 = alloca i32, align 4
  %8 = alloca ptr, align 8
  %9 = alloca [1 x %struct.__jmp_buf_tag], align 16
  store ptr %0, ptr %3, align 8, !tbaa !4
  call void @llvm.lifetime.start.p0(i64 1, ptr %4) #10
  store i8 0, ptr %4, align 1, !tbaa !61
  call void @llvm.lifetime.start.p0(i64 16, ptr %5) #10
  call void @llvm.lifetime.start.p0(i64 4, ptr %6) #10
  store i32 -1, ptr %6, align 4, !tbaa !10
  %10 = load i8, ptr getelementptr inbounds nuw (%struct._php_ps_globals, ptr @ps_globals, i32 0, i32 26), align 8, !tbaa !60, !range !62, !noundef !63
  %11 = trunc i8 %10 to i1
  br i1 %11, label %13, label %12

12:                                               ; preds = %1
  store i32 0, ptr %2, align 4
  store i32 1, ptr %7, align 4
  br label %34

13:                                               ; preds = %1
  call void @llvm.lifetime.start.p0(i64 8, ptr %8) #10
  %14 = load ptr, ptr getelementptr inbounds nuw (%struct._zend_executor_globals, ptr @executor_globals, i32 0, i32 7), align 8, !tbaa !17
  store ptr %14, ptr %8, align 8, !tbaa !48
  call void @llvm.lifetime.start.p0(i64 200, ptr %9) #10
  store ptr %9, ptr getelementptr inbounds nuw (%struct._zend_executor_globals, ptr @executor_globals, i32 0, i32 7), align 8, !tbaa !17
  %15 = getelementptr inbounds [1 x %struct.__jmp_buf_tag], ptr %9, i64 0, i64 0
  %16 = call i32 @__sigsetjmp(ptr noundef %15, i32 noundef 0) #12
  %17 = icmp eq i32 %16, 0
  br i1 %17, label %18, label %19

18:                                               ; preds = %13
  call void @ps_call_handler(ptr noundef getelementptr inbounds nuw (%struct.anon.8, ptr getelementptr inbounds nuw (%struct._php_ps_globals, ptr @ps_globals, i32 0, i32 24), i32 0, i32 1), i32 noundef 0, ptr noundef null, ptr noundef %5)
  br label %21

19:                                               ; preds = %13
  %20 = load ptr, ptr %8, align 8, !tbaa !48
  store ptr %20, ptr getelementptr inbounds nuw (%struct._zend_executor_globals, ptr @executor_globals, i32 0, i32 7), align 8, !tbaa !17
  store i8 1, ptr %4, align 1, !tbaa !61
  br label %21

21:                                               ; preds = %19, %18
  %22 = load ptr, ptr %8, align 8, !tbaa !48
  store ptr %22, ptr getelementptr inbounds nuw (%struct._zend_executor_globals, ptr @executor_globals, i32 0, i32 7), align 8, !tbaa !17
  call void @llvm.lifetime.end.p0(i64 200, ptr %9) #10
  call void @llvm.lifetime.end.p0(i64 8, ptr %8) #10
  store i8 0, ptr getelementptr inbounds nuw (%struct._php_ps_globals, ptr @ps_globals, i32 0, i32 26), align 8, !tbaa !60
  %23 = load i8, ptr %4, align 1, !tbaa !61, !range !62, !noundef !63
  %24 = trunc i8 %23 to i1
  br i1 %24, label %25, label %31

25:                                               ; preds = %21
  %26 = call zeroext i8 @zval_get_type(ptr noundef %5)
  %27 = zext i8 %26 to i32
  %28 = icmp eq i32 %27, 0
  br i1 %28, label %30, label %29

29:                                               ; preds = %25
  call void @zval_ptr_dtor(ptr noundef %5)
  br label %30

30:                                               ; preds = %29, %25
  call void @_zend_bailout(ptr noundef @.str.1, i32 noundef 135) #13
  unreachable

31:                                               ; preds = %21
  %32 = call i32 @verify_bool_return_type_userland_calls(ptr noundef %5)
  store i32 %32, ptr %6, align 4, !tbaa !10
  call void @zval_ptr_dtor(ptr noundef %5)
  %33 = load i32, ptr %6, align 4, !tbaa !10
  store i32 %33, ptr %2, align 4
  store i32 1, ptr %7, align 4
  br label %34

34:                                               ; preds = %31, %12
  call void @llvm.lifetime.end.p0(i64 4, ptr %6) #10
  call void @llvm.lifetime.end.p0(i64 16, ptr %5) #10
  call void @llvm.lifetime.end.p0(i64 1, ptr %4) #10
  %35 = load i32, ptr %2, align 4
  ret i32 %35
}