; Function Attrs: nounwind uwtable
define hidden range(i32 -1, 1) i32 @ps_close_user(ptr readnone captures(none) %0) #0 {
  %2 = alloca %struct._zval_struct, align 8
  %3 = alloca [1 x %struct.__jmp_buf_tag], align 16
  call void @llvm.lifetime.start.p0(i64 16, ptr nonnull %2) #8
  %4 = load i8, ptr getelementptr inbounds nuw (i8, ptr @ps_globals, i64 344), align 8, !tbaa !60, !range !58, !noundef !59
  %5 = trunc nuw i8 %4 to i1
  br i1 %5, label %6, label %26

6:                                                ; preds = %1
  %7 = load ptr, ptr getelementptr inbounds nuw (i8, ptr @executor_globals, i64 416), align 8, !tbaa !14
  call void @llvm.lifetime.start.p0(i64 200, ptr nonnull %3) #8
  store ptr %3, ptr getelementptr inbounds nuw (i8, ptr @executor_globals, i64 416), align 8, !tbaa !14
  %8 = call i32 @__sigsetjmp(ptr noundef nonnull %3, i32 noundef 0) #11
  %.not = icmp eq i32 %8, 0
  call void @llvm.assume(i1 %.not)
  %9 = load i8, ptr getelementptr inbounds nuw (i8, ptr @ps_globals, i64 436), align 4, !tbaa !47, !range !58, !noundef !59
  %10 = trunc nuw i8 %9 to i1
  br i1 %10, label %11, label %13

11:                                               ; preds = %6
  store i8 0, ptr getelementptr inbounds nuw (i8, ptr @ps_globals, i64 436), align 4, !tbaa !47
  %12 = getelementptr inbounds nuw i8, ptr %2, i64 8
  store i32 0, ptr %12, align 8, !tbaa !9
  call void (ptr, i32, ptr, ...) @php_error_docref(ptr noundef null, i32 noundef 2, ptr noundef nonnull @.str.4) #8
  br label %24

13:                                               ; preds = %6
  store i8 1, ptr getelementptr inbounds nuw (i8, ptr @ps_globals, i64 436), align 4, !tbaa !47
  %14 = call i32 @_call_user_function_impl(ptr noundef null, ptr noundef nonnull getelementptr inbounds nuw (i8, ptr @ps_globals, i64 208), ptr noundef nonnull %2, i32 noundef 0, ptr noundef null, ptr noundef null) #8
  %15 = icmp eq i32 %14, -1
  br i1 %15, label %16, label %18

16:                                               ; preds = %13
  call void @zval_ptr_dtor(ptr noundef nonnull %2) #8
  %17 = getelementptr inbounds nuw i8, ptr %2, i64 8
  store i32 0, ptr %17, align 8, !tbaa !9
  br label %23

18:                                               ; preds = %13
  %19 = getelementptr inbounds nuw i8, ptr %2, i64 8
  %20 = load i8, ptr %19, align 8, !tbaa !9
  %21 = icmp eq i8 %20, 0
  br i1 %21, label %22, label %23

22:                                               ; preds = %18
  store i32 1, ptr %19, align 8, !tbaa !9
  br label %23

23:                                               ; preds = %22, %18, %16
  store i8 0, ptr getelementptr inbounds nuw (i8, ptr @ps_globals, i64 436), align 4, !tbaa !47
  br label %24

24:                                               ; preds = %23, %11
  store ptr %7, ptr getelementptr inbounds nuw (i8, ptr @executor_globals, i64 416), align 8, !tbaa !14
  call void @llvm.lifetime.end.p0(i64 200, ptr nonnull %3) #8
  store i8 0, ptr getelementptr inbounds nuw (i8, ptr @ps_globals, i64 344), align 8, !tbaa !60
  %25 = call fastcc i32 @verify_bool_return_type_userland_calls(ptr noundef %2)
  call void @zval_ptr_dtor(ptr noundef nonnull %2) #8
  br label %26

26:                                               ; preds = %1, %24
  %.0 = phi i32 [ %25, %24 ], [ 0, %1 ]
  call void @llvm.lifetime.end.p0(i64 16, ptr nonnull %2) #8
  ret i32 %.0
}